target datalayout = "e-m:e-p270:32:32-p271:32:32-p272:64:64-i64:64-i128:128-f80:128-n8:16:32:64-S128"
target triple = "x86_64-pc-linux-gnu"

%"class.LIEF::PE::TLS" = type { %"class.LIEF::Object", %"class.std::vector", %"struct.std::pair", i64, i64, i32, i32, ptr, ptr, %"class.std::vector.0" }
%"class.LIEF::Object" = type { ptr }
%"class.std::vector" = type { %"struct.std::_Vector_base" }
%"struct.std::_Vector_base" = type { %"struct.std::_Vector_base<unsigned long, std::allocator<unsigned long>>::_Vector_impl" }
%"struct.std::_Vector_base<unsigned long, std::allocator<unsigned long>>::_Vector_impl" = type { %"struct.std::_Vector_base<unsigned long, std::allocator<unsigned long>>::_Vector_impl_data" }
%"struct.std::_Vector_base<unsigned long, std::allocator<unsigned long>>::_Vector_impl_data" = type { ptr, ptr, ptr }
%"struct.std::pair" = type { i64, i64 }
%"class.std::vector.0" = type { %"struct.std::_Vector_base.1" }
%"struct.std::_Vector_base.1" = type { %"struct.std::_Vector_base<unsigned char, std::allocator<unsigned char>>::_Vector_impl" }
%"struct.std::_Vector_base<unsigned char, std::allocator<unsigned char>>::_Vector_impl" = type { %"struct.std::_Vector_base<unsigned char, std::allocator<unsigned char>>::_Vector_impl_data" }
%"struct.std::_Vector_base<unsigned char, std::allocator<unsigned char>>::_Vector_impl_data" = type { ptr, ptr, ptr }

; Function Attrs: mustprogress nounwind uwtable
define linkonce_odr hidden noundef nonnull align 8 dereferenceable(16) ptr @_ZNSt4pairImmEaSERKS0_(ptr noundef nonnull align 8 dereferenceable(16) %0, ptr noundef nonnull align 8 dereferenceable(16) %1) #1 comdat align 2 {
  %3 = alloca ptr, align 8
  %4 = alloca ptr, align 8
  store ptr %0, ptr %3, align 8
  store ptr %1, ptr %4, align 8
  %5 = load ptr, ptr %3, align 8
  %6 = load ptr, ptr %4, align 8
  %7 = getelementptr inbounds %"struct.std::pair", ptr %6, i32 0, i32 0
  %8 = load i64, ptr %7, align 8
  %9 = getelementptr inbounds %"struct.std::pair", ptr %5, i32 0, i32 0
  store i64 %8, ptr %9, align 8
  %10 = load ptr, ptr %4, align 8
  %11 = getelementptr inbounds %"struct.std::pair", ptr %10, i32 0, i32 1
  %12 = load i64, ptr %11, align 8
  %13 = getelementptr inbounds %"struct.std::pair", ptr %5, i32 0, i32 1
  store i64 %12, ptr %13, align 8
  ret ptr %5
}

; Function Attrs: mustprogress uwtable
define noundef nonnull align 8 dereferenceable(112) ptr @_ZN4LIEF2PE3TLSaSERKS1_(ptr noundef nonnull align 8 dereferenceable(112) %0, ptr noundef nonnull align 8 dereferenceable(112) %1) #3 align 2 {
  %3 = alloca ptr, align 8
  %4 = alloca ptr, align 8
  store ptr %0, ptr %3, align 8
  store ptr %1, ptr %4, align 8
  %5 = load ptr, ptr %3, align 8
  %6 = load ptr, ptr %4, align 8
  %7 = call noundef nonnull align 8 dereferenceable(8) ptr @_ZN4LIEF6ObjectaSERKS0_(ptr noundef nonnull align 8 dereferenceable(8) %5, ptr noundef nonnull align 8 dereferenceable(8) %6)
  %8 = getelementptr inbounds %"class.LIEF::PE::TLS", ptr %5, i32 0, i32 1
  %9 = load ptr, ptr %4, align 8
  %10 = getelementptr inbounds %"class.LIEF::PE::TLS", ptr %9, i32 0, i32 1
  %11 = call noundef nonnull align 8 dereferenceable(24) ptr @_ZNSt6vectorImSaImEEaSERKS1_(ptr noundef nonnull align 8 dereferenceable(24) %8, ptr noundef nonnull align 8 dereferenceable(24) %10)
  %12 = getelementptr inbounds %"class.LIEF::PE::TLS", ptr %5, i32 0, i32 2
  %13 = load ptr, ptr %4, align 8
  %14 = getelementptr inbounds %"class.LIEF::PE::TLS", ptr %13, i32 0, i32 2
  %15 = call noundef nonnull align 8 dereferenceable(16) ptr @_ZNSt4pairImmEaSERKS0_(ptr noundef nonnull align 8 dereferenceable(16) %12, ptr noundef nonnull align 8 dereferenceable(16) %14)
  %16 = getelementptr inbounds %"class.LIEF::PE::TLS", ptr %5, i32 0, i32 3
  %17 = load ptr, ptr %4, align 8
  %18 = getelementptr inbounds %"class.LIEF::PE::TLS", ptr %17, i32 0, i32 3
  call void @llvm.memcpy.p0.p0.i64(ptr align 8 %16, ptr align 8 %18, i64 40, i1 false)
  %19 = getelementptr inbounds %"class.LIEF::PE::TLS", ptr %5, i32 0, i32 9
  %20 = load ptr, ptr %4, align 8
  %21 = getelementptr inbounds %"class.LIEF::PE::TLS", ptr %20, i32 0, i32 9
  %22 = call noundef nonnull align 8 dereferenceable(24) ptr @_ZNSt6vectorIhSaIhEEaSERKS1_(ptr noundef nonnull align 8 dereferenceable(24) %19, ptr noundef nonnull align 8 dereferenceable(24) %21)
  ret ptr %5
}