; Function Attrs: mustprogress uwtable
define noundef nonnull align 8 dereferenceable(112) ptr @_ZN4LIEF2PE3TLSaSERKS1_(ptr noundef nonnull returned align 8 dereferenceable(112) %0, ptr noundef nonnull align 8 dereferenceable(112) %1) local_unnamed_addr #3 align 2 {
  %3 = tail call noundef nonnull align 8 dereferenceable(8) ptr @_ZN4LIEF6ObjectaSERKS0_(ptr noundef nonnull align 8 dereferenceable(8) %0, ptr noundef nonnull align 8 dereferenceable(8) %1)
  %4 = getelementptr inbounds i8, ptr %0, i64 8
  %5 = getelementptr inbounds i8, ptr %1, i64 8
  %6 = tail call noundef nonnull align 8 dereferenceable(24) ptr @_ZNSt6vectorImSaImEEaSERKS1_(ptr noundef nonnull align 8 dereferenceable(24) %4, ptr noundef nonnull align 8 dereferenceable(24) %5)
  %7 = getelementptr inbounds i8, ptr %0, i64 32
  %8 = getelementptr inbounds i8, ptr %1, i64 32
  %9 = load i64, ptr %8, align 8
  store i64 %9, ptr %7, align 8
  %10 = getelementptr inbounds i8, ptr %1, i64 40
  %11 = load i64, ptr %10, align 8
  %12 = getelementptr inbounds i8, ptr %0, i64 40
  store i64 %11, ptr %12, align 8
  %13 = getelementptr inbounds i8, ptr %0, i64 48
  %14 = getelementptr inbounds i8, ptr %1, i64 48
  tail call void @llvm.memcpy.p0.p0.i64(ptr noundef nonnull align 8 dereferenceable(40) %13, ptr noundef nonnull align 8 dereferenceable(40) %14, i64 40, i1 false)
  %15 = getelementptr inbounds i8, ptr %0, i64 88
  %16 = getelementptr inbounds i8, ptr %1, i64 88
  %17 = tail call noundef nonnull align 8 dereferenceable(24) ptr @_ZNSt6vectorIhSaIhEEaSERKS1_(ptr noundef nonnull align 8 dereferenceable(24) %15, ptr noundef nonnull align 8 dereferenceable(24) %16)
  ret ptr %0
}